; Function Attrs: mustprogress nofree norecurse nosync nounwind willreturn memory(argmem: readwrite) uwtable
define dso_local void @_ZN5clang11ParmVarDecl27setUninstantiatedDefaultArgEPNS_4ExprE(ptr nocapture noundef nonnull align 8 dereferenceable(104) %0, ptr noundef %1) local_unnamed_addr #11 align 2 {
  %3 = getelementptr inbounds nuw i8, ptr %0, i64 96
  %4 = load i32, ptr %3, align 8
  %5 = and i32 %4, -1537
  %6 = or disjoint i32 %5, 1024
  store i32 %6, ptr %3, align 8
  %7 = getelementptr inbounds nuw i8, ptr %0, i64 88
  %8 = ptrtoint ptr %1 to i64
  %9 = and i64 %8, -5
  store i64 %9, ptr %7, align 8
  ret void
}